target datalayout = "e-m:e-p270:32:32-p271:32:32-p272:64:64-i64:64-i128:128-f80:128-n8:16:32:64-S128"
target triple = "x86_64-pc-linux-gnu"

%struct.dirent = type { i64, i64, i16, i8, [256 x i8] }

@g_databaseDirectory = external global ptr, align 8
@.str.33 = private unnamed_addr constant [24 x i8] c"Can't change dir to %s\0A\00", align 1
@.str.34 = private unnamed_addr constant [27 x i8] c"Current working dir is %s\0A\00", align 1
@.str.35 = private unnamed_addr constant [37 x i8] c"checkdbdir: Can't open directory %s\0A\00", align 1
@.str.36 = private unnamed_addr constant [5 x i8] c".cld\00", align 1
@.str.37 = private unnamed_addr constant [5 x i8] c".cvd\00", align 1
@.str.38 = private unnamed_addr constant [50 x i8] c"Pruning unwanted or deprecated database file %s.\0A\00", align 1
@.str.39 = private unnamed_addr constant [75 x i8] c"Failed to prune unwanted database file %s, consider removing it manually.\0A\00", align 1

; Function Attrs: nounwind uwtable
define i32 @fc_prune_database_directory(ptr noundef %0, i32 noundef %1) #0 {
  %3 = alloca ptr, align 8
  %4 = alloca i32, align 4
  %5 = alloca i32, align 4
  %6 = alloca ptr, align 8
  %7 = alloca ptr, align 8
  %8 = alloca ptr, align 8
  %9 = alloca i32, align 4
  %10 = alloca i32, align 4
  store ptr %0, ptr %3, align 8
  store i32 %1, ptr %4, align 4
  store i32 16, ptr %5, align 4
  store ptr null, ptr %6, align 8
  store ptr null, ptr %8, align 8
  %11 = load ptr, ptr @g_databaseDirectory, align 8
  %12 = call i32 @chdir(ptr noundef %11) #10
  %13 = icmp ne i32 %12, 0
  br i1 %13, label %14, label %17

14:                                               ; preds = %2
  %15 = load ptr, ptr @g_databaseDirectory, align 8
  %16 = call i32 (i32, ptr, ...) @logg(i32 noundef 5, ptr noundef @.str.33, ptr noundef %15)
  store i32 3, ptr %5, align 4
  br label %97

17:                                               ; preds = %2
  %18 = load ptr, ptr @g_databaseDirectory, align 8
  %19 = call i32 (i32, ptr, ...) @logg(i32 noundef 2, ptr noundef @.str.34, ptr noundef %18)
  %20 = load ptr, ptr @g_databaseDirectory, align 8
  %21 = call ptr @opendir(ptr noundef %20)
  store ptr %21, ptr %6, align 8
  %22 = icmp ne ptr %21, null
  br i1 %22, label %26, label %23

23:                                               ; preds = %17
  %24 = load ptr, ptr @g_databaseDirectory, align 8
  %25 = call i32 (i32, ptr, ...) @logg(i32 noundef 5, ptr noundef @.str.35, ptr noundef %24)
  store i32 10, ptr %5, align 4
  br label %97

26:                                               ; preds = %17
  br label %27

27:                                               ; preds = %95, %26
  %28 = load ptr, ptr %6, align 8
  %29 = call ptr @readdir(ptr noundef %28)
  store ptr %29, ptr %7, align 8
  %30 = icmp ne ptr %29, null
  br i1 %30, label %31, label %96

31:                                               ; preds = %27
  %32 = load ptr, ptr %7, align 8
  %33 = getelementptr inbounds %struct.dirent, ptr %32, i32 0, i32 0
  %34 = load i64, ptr %33, align 8
  %35 = icmp ne i64 %34, 0
  br i1 %35, label %36, label %95

36:                                               ; preds = %31
  %37 = load ptr, ptr %7, align 8
  %38 = getelementptr inbounds %struct.dirent, ptr %37, i32 0, i32 4
  %39 = getelementptr inbounds [256 x i8], ptr %38, i64 0, i64 0
  %40 = call ptr @strstr(ptr noundef %39, ptr noundef @.str.36) #8
  store ptr %40, ptr %8, align 8
  %41 = icmp ne ptr null, %40
  br i1 %41, label %48, label %42

42:                                               ; preds = %36
  %43 = load ptr, ptr %7, align 8
  %44 = getelementptr inbounds %struct.dirent, ptr %43, i32 0, i32 4
  %45 = getelementptr inbounds [256 x i8], ptr %44, i64 0, i64 0
  %46 = call ptr @strstr(ptr noundef %45, ptr noundef @.str.37) #8
  store ptr %46, ptr %8, align 8
  %47 = icmp ne ptr null, %46
  br i1 %47, label %48, label %94

48:                                               ; preds = %42, %36
  store i32 0, ptr %10, align 4
  store i32 0, ptr %9, align 4
  br label %49

49:                                               ; preds = %73, %48
  %50 = load i32, ptr %9, align 4
  %51 = load i32, ptr %4, align 4
  %52 = icmp ult i32 %50, %51
  br i1 %52, label %53, label %76

53:                                               ; preds = %49
  %54 = load ptr, ptr %3, align 8
  %55 = load i32, ptr %9, align 4
  %56 = zext i32 %55 to i64
  %57 = getelementptr inbounds ptr, ptr %54, i64 %56
  %58 = load ptr, ptr %57, align 8
  %59 = load ptr, ptr %7, align 8
  %60 = getelementptr inbounds %struct.dirent, ptr %59, i32 0, i32 4
  %61 = getelementptr inbounds [256 x i8], ptr %60, i64 0, i64 0
  %62 = load ptr, ptr %8, align 8
  %63 = load ptr, ptr %7, align 8
  %64 = getelementptr inbounds %struct.dirent, ptr %63, i32 0, i32 4
  %65 = getelementptr inbounds [256 x i8], ptr %64, i64 0, i64 0
  %66 = ptrtoint ptr %62 to i64
  %67 = ptrtoint ptr %65 to i64
  %68 = sub i64 %66, %67
  %69 = call i32 @strncmp(ptr noundef %58, ptr noundef %61, i64 noundef %68) #8
  %70 = icmp eq i32 0, %69
  br i1 %70, label %71, label %72

71:                                               ; preds = %53
  store i32 1, ptr %10, align 4
  br label %72

72:                                               ; preds = %71, %53
  br label %73

73:                                               ; preds = %72
  %74 = load i32, ptr %9, align 4
  %75 = add i32 %74, 1
  store i32 %75, ptr %9, align 4
  br label %49

76:                                               ; preds = %49
  %77 = load i32, ptr %10, align 4
  %78 = icmp ne i32 %77, 0
  br i1 %78, label %93, label %79

79:                                               ; preds = %76
  %80 = load ptr, ptr %7, align 8
  %81 = getelementptr inbounds %struct.dirent, ptr %80, i32 0, i32 4
  %82 = getelementptr inbounds [256 x i8], ptr %81, i64 0, i64 0
  call void (i32, ptr, ...) @mprintf(i32 noundef 0, ptr noundef @.str.38, ptr noundef %82)
  %83 = load ptr, ptr %7, align 8
  %84 = getelementptr inbounds %struct.dirent, ptr %83, i32 0, i32 4
  %85 = getelementptr inbounds [256 x i8], ptr %84, i64 0, i64 0
  %86 = call i32 @unlink(ptr noundef %85) #10
  %87 = icmp ne i32 %86, 0
  br i1 %87, label %88, label %92

88:                                               ; preds = %79
  %89 = load ptr, ptr %7, align 8
  %90 = getelementptr inbounds %struct.dirent, ptr %89, i32 0, i32 4
  %91 = getelementptr inbounds [256 x i8], ptr %90, i64 0, i64 0
  call void (i32, ptr, ...) @mprintf(i32 noundef 5, ptr noundef @.str.39, ptr noundef %91)
  store i32 10, ptr %5, align 4
  br label %97

92:                                               ; preds = %79
  br label %93

93:                                               ; preds = %92, %76
  br label %94

94:                                               ; preds = %93, %42
  br label %95

95:                                               ; preds = %94, %31
  br label %27

96:                                               ; preds = %27
  store i32 0, ptr %5, align 4
  br label %97

97:                                               ; preds = %96, %88, %23, %14
  %98 = load ptr, ptr %6, align 8
  %99 = icmp ne ptr null, %98
  br i1 %99, label %100, label %103

100:                                              ; preds = %97
  %101 = load ptr, ptr %6, align 8
  %102 = call i32 @closedir(ptr noundef %101)
  br label %103

103:                                              ; preds = %100, %97
  %104 = load i32, ptr %5, align 4
  ret i32 %104
}