; Function Attrs: nounwind uwtable
define range(i32 0, 11) i32 @fc_prune_database_directory(ptr noundef readonly captures(none) %0, i32 noundef %1) local_unnamed_addr #1 {
  %3 = load ptr, ptr @g_databaseDirectory, align 8
  %4 = tail call i32 @chdir(ptr noundef %3) #15
  %.not = icmp eq i32 %4, 0
  %5 = load ptr, ptr @g_databaseDirectory, align 8
  br i1 %.not, label %8, label %6

6:                                                ; preds = %2
  %7 = tail call i32 (i32, ptr, ...) @logg(i32 noundef 5, ptr noundef nonnull @.str.33, ptr noundef %5) #15
  br label %.thread

8:                                                ; preds = %2
  %9 = tail call i32 (i32, ptr, ...) @logg(i32 noundef 2, ptr noundef nonnull @.str.34, ptr noundef %5) #15
  %10 = load ptr, ptr @g_databaseDirectory, align 8
  %11 = tail call ptr @opendir(ptr noundef %10)
  %.not26 = icmp eq ptr %11, null
  br i1 %.not26, label %32, label %.preheader

.preheader:                                       ; preds = %8
  %12 = tail call ptr @readdir(ptr noundef nonnull %11) #15
  %.not2746 = icmp eq ptr %12, null
  br i1 %.not2746, label %.thread38, label %.lr.ph47

.lr.ph47:                                         ; preds = %.preheader
  %.not48 = icmp eq i32 %1, 0
  br i1 %.not48, label %.lr.ph47.split, label %.lr.ph47.split.us.preheader

.lr.ph47.split.us.preheader:                      ; preds = %.lr.ph47
  %wide.trip.count = zext i32 %1 to i64
  br label %.lr.ph47.split.us

.lr.ph47.split.us:                                ; preds = %.lr.ph47.split.us.preheader, %30
  %13 = phi ptr [ %31, %30 ], [ %12, %.lr.ph47.split.us.preheader ]
  %14 = load i64, ptr %13, align 8
  %.not28.us = icmp eq i64 %14, 0
  br i1 %.not28.us, label %30, label %15

15:                                               ; preds = %.lr.ph47.split.us
  %16 = getelementptr inbounds nuw i8, ptr %13, i64 19
  %17 = tail call ptr @strstr(ptr noundef nonnull dereferenceable(1) %16, ptr noundef nonnull dereferenceable(1) @.str.36) #17
  %.not29.us = icmp eq ptr %17, null
  br i1 %.not29.us, label %18, label %.lr.ph.us

18:                                               ; preds = %15
  %19 = tail call ptr @strstr(ptr noundef nonnull dereferenceable(1) %16, ptr noundef nonnull dereferenceable(1) @.str.37) #17
  %.not30.us = icmp eq ptr %19, null
  br i1 %.not30.us, label %30, label %.lr.ph.us

.lr.ph.us:                                        ; preds = %18, %15
  %.019.us = phi ptr [ %17, %15 ], [ %19, %18 ]
  %20 = ptrtoint ptr %.019.us to i64
  %21 = ptrtoint ptr %16 to i64
  %22 = sub i64 %20, %21
  br label %25

23:                                               ; preds = %._crit_edge.us
  tail call void (i32, ptr, ...) @mprintf(i32 noundef 0, ptr noundef nonnull @.str.38, ptr noundef nonnull %16) #15
  %24 = tail call i32 @unlink(ptr noundef nonnull %16) #15
  %.not32.us = icmp eq i32 %24, 0
  br i1 %.not32.us, label %30, label %.split.us

25:                                               ; preds = %.lr.ph.us, %25
  %indvars.iv = phi i64 [ 0, %.lr.ph.us ], [ %indvars.iv.next, %25 ]
  %.045.us = phi i32 [ 0, %.lr.ph.us ], [ %spec.select.us, %25 ]
  %26 = getelementptr inbounds nuw ptr, ptr %0, i64 %indvars.iv
  %27 = load ptr, ptr %26, align 8
  %28 = tail call i32 @strncmp(ptr noundef %27, ptr noundef nonnull %16, i64 noundef %22) #17
  %29 = icmp eq i32 %28, 0
  %spec.select.us = select i1 %29, i32 1, i32 %.045.us
  %indvars.iv.next = add nuw nsw i64 %indvars.iv, 1
  %exitcond.not = icmp eq i64 %indvars.iv.next, %wide.trip.count
  br i1 %exitcond.not, label %._crit_edge.us, label %25

30:                                               ; preds = %23, %._crit_edge.us, %18, %.lr.ph47.split.us
  %31 = tail call ptr @readdir(ptr noundef nonnull %11) #15
  %.not27.us = icmp eq ptr %31, null
  br i1 %.not27.us, label %.thread38, label %.lr.ph47.split.us

._crit_edge.us:                                   ; preds = %25
  %.not31.us = icmp eq i32 %spec.select.us, 0
  br i1 %.not31.us, label %23, label %30

32:                                               ; preds = %8
  %33 = load ptr, ptr @g_databaseDirectory, align 8
  %34 = tail call i32 (i32, ptr, ...) @logg(i32 noundef 5, ptr noundef nonnull @.str.35, ptr noundef %33) #15
  br label %.thread

.lr.ph47.split:                                   ; preds = %.lr.ph47, %44
  %35 = phi ptr [ %45, %44 ], [ %12, %.lr.ph47 ]
  %36 = load i64, ptr %35, align 8
  %.not28 = icmp eq i64 %36, 0
  br i1 %.not28, label %44, label %37

37:                                               ; preds = %.lr.ph47.split
  %38 = getelementptr inbounds nuw i8, ptr %35, i64 19
  %39 = tail call ptr @strstr(ptr noundef nonnull dereferenceable(1) %38, ptr noundef nonnull dereferenceable(1) @.str.36) #17
  %.not29 = icmp eq ptr %39, null
  br i1 %.not29, label %40, label %42

40:                                               ; preds = %37
  %41 = tail call ptr @strstr(ptr noundef nonnull dereferenceable(1) %38, ptr noundef nonnull dereferenceable(1) @.str.37) #17
  %.not30 = icmp eq ptr %41, null
  br i1 %.not30, label %44, label %42

42:                                               ; preds = %40, %37
  tail call void (i32, ptr, ...) @mprintf(i32 noundef 0, ptr noundef nonnull @.str.38, ptr noundef nonnull %38) #15
  %43 = tail call i32 @unlink(ptr noundef nonnull %38) #15
  %.not32 = icmp eq i32 %43, 0
  br i1 %.not32, label %44, label %.split.us

44:                                               ; preds = %40, %42, %.lr.ph47.split
  %45 = tail call ptr @readdir(ptr noundef nonnull %11) #15
  %.not27 = icmp eq ptr %45, null
  br i1 %.not27, label %.thread38, label %.lr.ph47.split

.split.us:                                        ; preds = %23, %42
  %.us-phi = phi ptr [ %38, %42 ], [ %16, %23 ]
  tail call void (i32, ptr, ...) @mprintf(i32 noundef 5, ptr noundef nonnull @.str.39, ptr noundef nonnull %.us-phi) #15
  br label %.thread38

.thread38:                                        ; preds = %30, %44, %.preheader, %.split.us
  %.02043 = phi i32 [ 10, %.split.us ], [ 0, %.preheader ], [ 0, %44 ], [ 0, %30 ]
  %46 = tail call i32 @closedir(ptr noundef nonnull %11)
  br label %.thread

.thread:                                          ; preds = %32, %6, %.thread38
  %.02037 = phi i32 [ %.02043, %.thread38 ], [ 10, %32 ], [ 3, %6 ]
  ret i32 %.02037
}